; Function Attrs: mustprogress uwtable
define hidden noundef nonnull ptr @ceres_create_problem() local_unnamed_addr #4 personality ptr @__gxx_personality_v0 {
  %1 = tail call noalias noundef nonnull dereferenceable(8) ptr @_Znwm(i64 noundef 8) #18
  invoke void @_ZN5ceres7ProblemC1Ev(ptr noundef nonnull align 8 dereferenceable(8) %1)
          to label %2 unwind label %3

2:                                                ; preds = %0
  ret ptr %1

3:                                                ; preds = %0
  %4 = landingpad { ptr, i32 }
          cleanup
  tail call void @_ZdlPvm(ptr noundef nonnull %1, i64 noundef 8) #19
  resume { ptr, i32 } %4
}